; Function Attrs: mustprogress nofree norecurse nosync nounwind willreturn memory(argmem: read) uwtable
define noundef i32 @_ZNK11dtTileCache10getTileRefEPK16dtCompressedTile(ptr noundef nonnull readonly align 8 captures(none) dereferenceable(912) %0, ptr noundef %1) local_unnamed_addr #10 align 2 {
  %.not = icmp eq ptr %1, null
  br i1 %.not, label %16, label %3

3:                                                ; preds = %2
  %4 = getelementptr inbounds nuw i8, ptr %0, i64 24
  %5 = load ptr, ptr %4, align 8
  %6 = ptrtoint ptr %1 to i64
  %7 = ptrtoint ptr %5 to i64
  %8 = sub i64 %6, %7
  %9 = sdiv exact i64 %8, 56
  %10 = trunc i64 %9 to i32
  %11 = load i32, ptr %1, align 8
  %12 = getelementptr inbounds nuw i8, ptr %0, i64 36
  %13 = load i32, ptr %12, align 4
  %14 = shl i32 %11, %13
  %15 = or i32 %14, %10
  br label %16

16:                                               ; preds = %2, %3
  %.0 = phi i32 [ %15, %3 ], [ 0, %2 ]
  ret i32 %.0
}